target datalayout = "e-m:e-p270:32:32-p271:32:32-p272:64:64-i64:64-i128:128-f80:128-n8:16:32:64-S128"
target triple = "x86_64-pc-linux-gnu"

%struct.HMAC_params = type { ptr, ptr, ptr, i32, i32, i32 }
%struct.ms_filetime = type { i32, i32 }
%struct.ntlmdata = type { i32, [8 x i8], i32, ptr }

@Curl_cfree = external global ptr, align 8
@Curl_HMAC_MD5 = external constant %struct.HMAC_params, align 8
@Curl_ccalloc = external global ptr, align 8
@.str.1 = private unnamed_addr constant [33 x i8] c"%c%c%c%c%c%c%c%c%c%c%c%c%c%c%c%c\00", align 1
@.str.2 = private unnamed_addr constant [5 x i8] c"\01\01\00\00\00", align 1

; Function Attrs: nounwind uwtable
define internal void @time2filetime(ptr noundef %0, i64 noundef %1) #0 {
  %3 = alloca ptr, align 8
  %4 = alloca i64, align 8
  store ptr %0, ptr %3, align 8, !tbaa !32
  store i64 %1, ptr %4, align 8, !tbaa !11
  %5 = load i64, ptr %4, align 8, !tbaa !11
  %6 = add nsw i64 %5, 11644473600
  %7 = mul nsw i64 %6, 10000000
  store i64 %7, ptr %4, align 8, !tbaa !11
  %8 = load i64, ptr %4, align 8, !tbaa !11
  %9 = and i64 %8, 4294967295
  %10 = trunc i64 %9 to i32
  %11 = load ptr, ptr %3, align 8, !tbaa !32
  %12 = getelementptr inbounds nuw %struct.ms_filetime, ptr %11, i32 0, i32 0
  store i32 %10, ptr %12, align 4, !tbaa !28
  %13 = load i64, ptr %4, align 8, !tbaa !11
  %14 = ashr i64 %13, 32
  %15 = trunc i64 %14 to i32
  %16 = load ptr, ptr %3, align 8, !tbaa !32
  %17 = getelementptr inbounds nuw %struct.ms_filetime, ptr %16, i32 0, i32 1
  store i32 %15, ptr %17, align 4, !tbaa !30
  ret void
}

; Function Attrs: nounwind uwtable
define dso_local i32 @Curl_ntlm_core_mk_ntlmv2_resp(ptr noundef %0, ptr noundef %1, ptr noundef %2, ptr noundef %3, ptr noundef %4) #0 {
  %6 = alloca i32, align 4
  %7 = alloca ptr, align 8
  %8 = alloca ptr, align 8
  %9 = alloca ptr, align 8
  %10 = alloca ptr, align 8
  %11 = alloca ptr, align 8
  %12 = alloca i32, align 4
  %13 = alloca ptr, align 8
  %14 = alloca [16 x i8], align 16
  %15 = alloca %struct.ms_filetime, align 4
  %16 = alloca i32, align 4
  %17 = alloca i32, align 4
  store ptr %0, ptr %7, align 8, !tbaa !4
  store ptr %1, ptr %8, align 8, !tbaa !4
  store ptr %2, ptr %9, align 8, !tbaa !20
  store ptr %3, ptr %10, align 8, !tbaa !22
  store ptr %4, ptr %11, align 8, !tbaa !24
  call void @llvm.lifetime.start.p0(i64 4, ptr %12) #7
  store i32 0, ptr %12, align 4, !tbaa !14
  call void @llvm.lifetime.start.p0(i64 8, ptr %13) #7
  store ptr null, ptr %13, align 8, !tbaa !4
  call void @llvm.lifetime.start.p0(i64 16, ptr %14) #7
  call void @llvm.lifetime.start.p0(i64 8, ptr %15) #7
  call void @llvm.lifetime.start.p0(i64 4, ptr %16) #7
  store i32 0, ptr %16, align 4, !tbaa !14
  %18 = call i64 @time(ptr noundef null) #7
  call void @time2filetime(ptr noundef %15, i64 noundef %18)
  %19 = load ptr, ptr %9, align 8, !tbaa !20
  %20 = getelementptr inbounds nuw %struct.ntlmdata, ptr %19, i32 0, i32 2
  %21 = load i32, ptr %20, align 4, !tbaa !26
  %22 = add i32 28, %21
  %23 = add i32 %22, 4
  %24 = add i32 16, %23
  store i32 %24, ptr %12, align 4, !tbaa !14
  %25 = load ptr, ptr @Curl_ccalloc, align 8, !tbaa !13
  %26 = load i32, ptr %12, align 4, !tbaa !14
  %27 = zext i32 %26 to i64
  %28 = call ptr %25(i64 noundef 1, i64 noundef %27)
  store ptr %28, ptr %13, align 8, !tbaa !4
  %29 = load ptr, ptr %13, align 8, !tbaa !4
  %30 = icmp ne ptr %29, null
  br i1 %30, label %32, label %31

31:                                               ; preds = %5
  store i32 27, ptr %6, align 4
  store i32 1, ptr %17, align 4
  br label %129

32:                                               ; preds = %5
  %33 = load ptr, ptr %13, align 8, !tbaa !4
  %34 = getelementptr inbounds i8, ptr %33, i64 16
  %35 = load ptr, ptr %9, align 8, !tbaa !20
  %36 = getelementptr inbounds nuw %struct.ntlmdata, ptr %35, i32 0, i32 2
  %37 = load i32, ptr %36, align 4, !tbaa !26
  %38 = add i32 28, %37
  %39 = add i32 %38, 4
  %40 = zext i32 %39 to i64
  %41 = load i8, ptr @.str.2, align 1, !tbaa !16
  %42 = sext i8 %41 to i32
  %43 = load i8, ptr getelementptr inbounds ([5 x i8], ptr @.str.2, i64 0, i64 1), align 1, !tbaa !16
  %44 = sext i8 %43 to i32
  %45 = load i8, ptr getelementptr inbounds ([5 x i8], ptr @.str.2, i64 0, i64 2), align 1, !tbaa !16
  %46 = sext i8 %45 to i32
  %47 = load i8, ptr getelementptr inbounds ([5 x i8], ptr @.str.2, i64 0, i64 3), align 1, !tbaa !16
  %48 = sext i8 %47 to i32
  %49 = getelementptr inbounds nuw %struct.ms_filetime, ptr %15, i32 0, i32 0
  %50 = load i32, ptr %49, align 4, !tbaa !28
  %51 = and i32 %50, 255
  %52 = getelementptr inbounds nuw %struct.ms_filetime, ptr %15, i32 0, i32 0
  %53 = load i32, ptr %52, align 4, !tbaa !28
  %54 = lshr i32 %53, 8
  %55 = and i32 %54, 255
  %56 = getelementptr inbounds nuw %struct.ms_filetime, ptr %15, i32 0, i32 0
  %57 = load i32, ptr %56, align 4, !tbaa !28
  %58 = lshr i32 %57, 16
  %59 = and i32 %58, 255
  %60 = getelementptr inbounds nuw %struct.ms_filetime, ptr %15, i32 0, i32 0
  %61 = load i32, ptr %60, align 4, !tbaa !28
  %62 = lshr i32 %61, 24
  %63 = and i32 %62, 255
  %64 = getelementptr inbounds nuw %struct.ms_filetime, ptr %15, i32 0, i32 1
  %65 = load i32, ptr %64, align 4, !tbaa !30
  %66 = and i32 %65, 255
  %67 = getelementptr inbounds nuw %struct.ms_filetime, ptr %15, i32 0, i32 1
  %68 = load i32, ptr %67, align 4, !tbaa !30
  %69 = lshr i32 %68, 8
  %70 = and i32 %69, 255
  %71 = getelementptr inbounds nuw %struct.ms_filetime, ptr %15, i32 0, i32 1
  %72 = load i32, ptr %71, align 4, !tbaa !30
  %73 = lshr i32 %72, 16
  %74 = and i32 %73, 255
  %75 = getelementptr inbounds nuw %struct.ms_filetime, ptr %15, i32 0, i32 1
  %76 = load i32, ptr %75, align 4, !tbaa !30
  %77 = lshr i32 %76, 24
  %78 = and i32 %77, 255
  %79 = call i32 (ptr, i64, ptr, ...) @curl_msnprintf(ptr noundef %34, i64 noundef %40, ptr noundef @.str.1, i32 noundef %42, i32 noundef %44, i32 noundef %46, i32 noundef %48, i32 noundef 0, i32 noundef 0, i32 noundef 0, i32 noundef 0, i32 noundef %51, i32 noundef %55, i32 noundef %59, i32 noundef %63, i32 noundef %66, i32 noundef %70, i32 noundef %74, i32 noundef %78)
  %80 = load ptr, ptr %13, align 8, !tbaa !4
  %81 = getelementptr inbounds i8, ptr %80, i64 32
  %82 = load ptr, ptr %8, align 8, !tbaa !4
  call void @llvm.memcpy.p0.p0.i64(ptr align 1 %81, ptr align 1 %82, i64 8, i1 false)
  %83 = load ptr, ptr %9, align 8, !tbaa !20
  %84 = getelementptr inbounds nuw %struct.ntlmdata, ptr %83, i32 0, i32 2
  %85 = load i32, ptr %84, align 4, !tbaa !26
  %86 = icmp ne i32 %85, 0
  br i1 %86, label %87, label %97

87:                                               ; preds = %32
  %88 = load ptr, ptr %13, align 8, !tbaa !4
  %89 = getelementptr inbounds i8, ptr %88, i64 44
  %90 = load ptr, ptr %9, align 8, !tbaa !20
  %91 = getelementptr inbounds nuw %struct.ntlmdata, ptr %90, i32 0, i32 3
  %92 = load ptr, ptr %91, align 8, !tbaa !31
  %93 = load ptr, ptr %9, align 8, !tbaa !20
  %94 = getelementptr inbounds nuw %struct.ntlmdata, ptr %93, i32 0, i32 2
  %95 = load i32, ptr %94, align 4, !tbaa !26
  %96 = zext i32 %95 to i64
  call void @llvm.memcpy.p0.p0.i64(ptr align 1 %89, ptr align 1 %92, i64 %96, i1 false)
  br label %97

97:                                               ; preds = %87, %32
  %98 = load ptr, ptr %13, align 8, !tbaa !4
  %99 = getelementptr inbounds i8, ptr %98, i64 8
  %100 = load ptr, ptr %9, align 8, !tbaa !20
  %101 = getelementptr inbounds nuw %struct.ntlmdata, ptr %100, i32 0, i32 1
  %102 = getelementptr inbounds [8 x i8], ptr %101, i64 0, i64 0
  call void @llvm.memcpy.p0.p0.i64(ptr align 1 %99, ptr align 4 %102, i64 8, i1 false)
  %103 = load ptr, ptr %7, align 8, !tbaa !4
  %104 = load ptr, ptr %13, align 8, !tbaa !4
  %105 = getelementptr inbounds i8, ptr %104, i64 8
  %106 = load ptr, ptr %9, align 8, !tbaa !20
  %107 = getelementptr inbounds nuw %struct.ntlmdata, ptr %106, i32 0, i32 2
  %108 = load i32, ptr %107, align 4, !tbaa !26
  %109 = add i32 28, %108
  %110 = add i32 %109, 4
  %111 = add i32 %110, 8
  %112 = zext i32 %111 to i64
  %113 = getelementptr inbounds [16 x i8], ptr %14, i64 0, i64 0
  %114 = call i32 @Curl_hmacit(ptr noundef @Curl_HMAC_MD5, ptr noundef %103, i64 noundef 16, ptr noundef %105, i64 noundef %112, ptr noundef %113)
  store i32 %114, ptr %16, align 4, !tbaa !14
  %115 = load i32, ptr %16, align 4, !tbaa !14
  %116 = icmp ne i32 %115, 0
  br i1 %116, label %117, label %121

117:                                              ; preds = %97
  %118 = load ptr, ptr @Curl_cfree, align 8, !tbaa !13
  %119 = load ptr, ptr %13, align 8, !tbaa !4
  call void %118(ptr noundef %119)
  %120 = load i32, ptr %16, align 4, !tbaa !14
  store i32 %120, ptr %6, align 4
  store i32 1, ptr %17, align 4
  br label %129

121:                                              ; preds = %97
  %122 = load ptr, ptr %13, align 8, !tbaa !4
  %123 = getelementptr inbounds [16 x i8], ptr %14, i64 0, i64 0
  call void @llvm.memcpy.p0.p0.i64(ptr align 1 %122, ptr align 16 %123, i64 16, i1 false)
  %124 = load ptr, ptr %13, align 8, !tbaa !4
  %125 = load ptr, ptr %10, align 8, !tbaa !22
  store ptr %124, ptr %125, align 8, !tbaa !4
  %126 = load i32, ptr %12, align 4, !tbaa !14
  %127 = load ptr, ptr %11, align 8, !tbaa !24
  store i32 %126, ptr %127, align 4, !tbaa !14
  %128 = load i32, ptr %16, align 4, !tbaa !14
  store i32 %128, ptr %6, align 4
  store i32 1, ptr %17, align 4
  br label %129

129:                                              ; preds = %121, %117, %31
  call void @llvm.lifetime.end.p0(i64 4, ptr %16) #7
  call void @llvm.lifetime.end.p0(i64 8, ptr %15) #7
  call void @llvm.lifetime.end.p0(i64 16, ptr %14) #7
  call void @llvm.lifetime.end.p0(i64 8, ptr %13) #7
  call void @llvm.lifetime.end.p0(i64 4, ptr %12) #7
  %130 = load i32, ptr %6, align 4
  ret i32 %130
}